target datalayout = "e-m:e-p270:32:32-p271:32:32-p272:64:64-i64:64-i128:128-f80:128-n8:16:32:64-S128"
target triple = "x86_64-pc-linux-gnu"

%struct.pointf_s = type { double, double }
%struct.GVJ_s = type { ptr, ptr, ptr, ptr, ptr, ptr, i32, ptr, ptr, ptr, ptr, i64, i64, ptr, i32, %struct.gvplugin_active_render_s, %struct.gvplugin_active_device_s, %struct.gvplugin_active_loadimage_t, ptr, %struct.pointf_s, i8, ptr, i32, ptr, i8, ptr, i32, i32, i32, %struct.point, %struct.point, %struct.point, %struct.point, %struct.point, i32, %struct.boxf, %struct.pointf_s, %struct.boxf, %struct.boxf, %struct.pointf_s, %struct.pointf_s, double, i32, %struct.pointf_s, %struct.boxf, %struct.pointf_s, %struct.pointf_s, i32, i32, %struct.box, %struct.box, %struct.pointf_s, %struct.pointf_s, %struct.pointf_s, i8, i8, i8, i8, i8, i8, %struct.pointf_s, %struct.pointf_s, ptr, ptr, ptr, ptr, ptr, ptr, i64, ptr }
%struct.gvplugin_active_render_s = type { ptr, i32, ptr, ptr }
%struct.gvplugin_active_device_s = type { ptr, i32, ptr, ptr }
%struct.gvplugin_active_loadimage_t = type { ptr, i32, ptr }
%struct.point = type { i32, i32 }
%struct.boxf = type { %struct.pointf_s, %struct.pointf_s }
%struct.box = type { %struct.point, %struct.point }
%struct.color_s = type { %union.anon, i32 }
%union.anon = type { [4 x double] }
%struct.obj_state_s = type { ptr, i32, %union.anon.0, i32, %struct.color_s, %struct.color_s, %struct.color_s, i32, double, i32, i32, double, ptr, double, double, double, ptr, ptr, ptr, ptr, ptr, ptr, ptr, ptr, ptr, ptr, ptr, ptr, ptr, ptr, ptr, ptr, ptr, i16, i32, i64, ptr, i64, ptr, ptr, i32, ptr, i32, ptr }
%union.anon.0 = type { ptr }

@.str.27 = private unnamed_addr constant [6 x i8] c"graph\00", align 1
@.str.28 = private unnamed_addr constant [19 x i8] c" transform=\22scale(\00", align 1
@.str.29 = private unnamed_addr constant [6 x i8] c"%g %g\00", align 1
@.str.30 = private unnamed_addr constant [24 x i8] c") rotate(%d) translate(\00", align 1
@.str.31 = private unnamed_addr constant [5 x i8] c")\22>\0A\00", align 1
@.str.32 = private unnamed_addr constant [8 x i8] c"<title>\00", align 1
@.str.33 = private unnamed_addr constant [10 x i8] c"</title>\0A\00", align 1

; Function Attrs: nounwind uwtable
define internal void @svg_begin_page(ptr noundef %0) #0 {
  %2 = alloca ptr, align 8
  %3 = alloca ptr, align 8
  store ptr %0, ptr %2, align 8, !tbaa !3
  call void @llvm.lifetime.start.p0(i64 8, ptr %3) #9
  %4 = load ptr, ptr %2, align 8, !tbaa !3
  %5 = getelementptr inbounds nuw %struct.GVJ_s, ptr %4, i32 0, i32 4
  %6 = load ptr, ptr %5, align 8, !tbaa !50
  store ptr %6, ptr %3, align 8, !tbaa !51
  %7 = load ptr, ptr %2, align 8, !tbaa !3
  %8 = load ptr, ptr %3, align 8, !tbaa !51
  %9 = getelementptr inbounds nuw %struct.obj_state_s, ptr %8, i32 0, i32 21
  %10 = load ptr, ptr %9, align 8, !tbaa !61
  %11 = load ptr, ptr %3, align 8, !tbaa !51
  %12 = getelementptr inbounds nuw %struct.obj_state_s, ptr %11, i32 0, i32 2
  %13 = load ptr, ptr %12, align 8, !tbaa !47
  call void @svg_print_id_class(ptr noundef %7, ptr noundef %10, ptr noundef null, ptr noundef @.str.27, ptr noundef %13)
  %14 = load ptr, ptr %2, align 8, !tbaa !3
  %15 = call i32 @gvputs(ptr noundef %14, ptr noundef @.str.28)
  %16 = load ptr, ptr %2, align 8, !tbaa !3
  %17 = load ptr, ptr %2, align 8, !tbaa !3
  %18 = getelementptr inbounds nuw %struct.GVJ_s, ptr %17, i32 0, i32 51
  %19 = getelementptr inbounds nuw %struct.pointf_s, ptr %18, i32 0, i32 0
  %20 = load double, ptr %19, align 8, !tbaa !65
  %21 = load ptr, ptr %2, align 8, !tbaa !3
  %22 = getelementptr inbounds nuw %struct.GVJ_s, ptr %21, i32 0, i32 51
  %23 = getelementptr inbounds nuw %struct.pointf_s, ptr %22, i32 0, i32 1
  %24 = load double, ptr %23, align 8, !tbaa !66
  call void (ptr, ptr, ...) @gvprintf(ptr noundef %16, ptr noundef @.str.29, double noundef %20, double noundef %24)
  %25 = load ptr, ptr %2, align 8, !tbaa !3
  %26 = load ptr, ptr %2, align 8, !tbaa !3
  %27 = getelementptr inbounds nuw %struct.GVJ_s, ptr %26, i32 0, i32 42
  %28 = load i32, ptr %27, align 8, !tbaa !67
  %29 = sub nsw i32 0, %28
  call void (ptr, ptr, ...) @gvprintf(ptr noundef %25, ptr noundef @.str.30, i32 noundef %29)
  %30 = load ptr, ptr %2, align 8, !tbaa !3
  %31 = load ptr, ptr %2, align 8, !tbaa !3
  %32 = getelementptr inbounds nuw %struct.GVJ_s, ptr %31, i32 0, i32 52
  %33 = getelementptr inbounds nuw %struct.pointf_s, ptr %32, i32 0, i32 0
  %34 = load double, ptr %33, align 8, !tbaa !68
  call void @gvprintdouble(ptr noundef %30, double noundef %34)
  %35 = load ptr, ptr %2, align 8, !tbaa !3
  %36 = call i32 @gvputc(ptr noundef %35, i32 noundef 32)
  %37 = load ptr, ptr %2, align 8, !tbaa !3
  %38 = load ptr, ptr %2, align 8, !tbaa !3
  %39 = getelementptr inbounds nuw %struct.GVJ_s, ptr %38, i32 0, i32 52
  %40 = getelementptr inbounds nuw %struct.pointf_s, ptr %39, i32 0, i32 1
  %41 = load double, ptr %40, align 8, !tbaa !69
  %42 = fneg double %41
  call void @gvprintdouble(ptr noundef %37, double noundef %42)
  %43 = load ptr, ptr %2, align 8, !tbaa !3
  %44 = call i32 @gvputs(ptr noundef %43, ptr noundef @.str.31)
  %45 = load ptr, ptr %3, align 8, !tbaa !51
  %46 = getelementptr inbounds nuw %struct.obj_state_s, ptr %45, i32 0, i32 2
  %47 = load ptr, ptr %46, align 8, !tbaa !47
  %48 = call ptr @agnameof(ptr noundef %47)
  %49 = getelementptr inbounds i8, ptr %48, i64 0
  %50 = load i8, ptr %49, align 1, !tbaa !47
  %51 = sext i8 %50 to i32
  %52 = icmp ne i32 %51, 0
  br i1 %52, label %53, label %73

53:                                               ; preds = %1
  %54 = load ptr, ptr %3, align 8, !tbaa !51
  %55 = getelementptr inbounds nuw %struct.obj_state_s, ptr %54, i32 0, i32 2
  %56 = load ptr, ptr %55, align 8, !tbaa !47
  %57 = call ptr @agnameof(ptr noundef %56)
  %58 = getelementptr inbounds i8, ptr %57, i64 0
  %59 = load i8, ptr %58, align 1, !tbaa !47
  %60 = sext i8 %59 to i32
  %61 = icmp ne i32 %60, 37
  br i1 %61, label %62, label %73

62:                                               ; preds = %53
  %63 = load ptr, ptr %2, align 8, !tbaa !3
  %64 = call i32 @gvputs(ptr noundef %63, ptr noundef @.str.32)
  %65 = load ptr, ptr %2, align 8, !tbaa !3
  %66 = load ptr, ptr %3, align 8, !tbaa !51
  %67 = getelementptr inbounds nuw %struct.obj_state_s, ptr %66, i32 0, i32 2
  %68 = load ptr, ptr %67, align 8, !tbaa !47
  %69 = call ptr @agnameof(ptr noundef %68)
  %70 = call i32 @gvputs_xml(ptr noundef %65, ptr noundef %69)
  %71 = load ptr, ptr %2, align 8, !tbaa !3
  %72 = call i32 @gvputs(ptr noundef %71, ptr noundef @.str.33)
  br label %73

73:                                               ; preds = %62, %53, %1
  call void @llvm.lifetime.end.p0(i64 8, ptr %3) #9
  ret void
}