; Function Attrs: nounwind uwtable
define internal void @svg_begin_page(ptr noundef %0) #0 {
  %2 = getelementptr inbounds nuw i8, ptr %0, i64 32
  %3 = load ptr, ptr %2, align 8, !tbaa !50
  %4 = getelementptr inbounds nuw i8, ptr %3, i64 256
  %5 = load ptr, ptr %4, align 8, !tbaa !59
  %6 = getelementptr inbounds nuw i8, ptr %3, i64 16
  %7 = load ptr, ptr %6, align 8, !tbaa !46
  tail call fastcc void @svg_print_id_class(ptr noundef %0, ptr noundef %5, ptr noundef null, ptr noundef nonnull @.str.27, ptr noundef %7)
  %8 = tail call i32 @gvputs(ptr noundef %0, ptr noundef nonnull @.str.28) #11
  %9 = getelementptr inbounds nuw i8, ptr %0, i64 616
  %10 = load double, ptr %9, align 8, !tbaa !63
  %11 = getelementptr inbounds nuw i8, ptr %0, i64 624
  %12 = load double, ptr %11, align 8, !tbaa !64
  tail call void (ptr, ptr, ...) @gvprintf(ptr noundef %0, ptr noundef nonnull @.str.29, double noundef %10, double noundef %12) #11
  %13 = getelementptr inbounds nuw i8, ptr %0, i64 488
  %14 = load i32, ptr %13, align 8, !tbaa !65
  %15 = sub nsw i32 0, %14
  tail call void (ptr, ptr, ...) @gvprintf(ptr noundef %0, ptr noundef nonnull @.str.30, i32 noundef %15) #11
  %16 = getelementptr inbounds nuw i8, ptr %0, i64 632
  %17 = load double, ptr %16, align 8, !tbaa !66
  tail call void @gvprintdouble(ptr noundef %0, double noundef %17) #11
  %18 = tail call i32 @gvputc(ptr noundef %0, i32 noundef 32) #11
  %19 = getelementptr inbounds nuw i8, ptr %0, i64 640
  %20 = load double, ptr %19, align 8, !tbaa !67
  %21 = fneg double %20
  tail call void @gvprintdouble(ptr noundef %0, double noundef %21) #11
  %22 = tail call i32 @gvputs(ptr noundef %0, ptr noundef nonnull @.str.31) #11
  %23 = load ptr, ptr %6, align 8, !tbaa !46
  %24 = tail call ptr @agnameof(ptr noundef %23) #11
  %25 = load i8, ptr %24, align 1, !tbaa !46
  %.not = icmp eq i8 %25, 0
  br i1 %.not, label %36, label %26

26:                                               ; preds = %1
  %27 = load ptr, ptr %6, align 8, !tbaa !46
  %28 = tail call ptr @agnameof(ptr noundef %27) #11
  %29 = load i8, ptr %28, align 1, !tbaa !46
  %.not22 = icmp eq i8 %29, 37
  br i1 %.not22, label %36, label %30

30:                                               ; preds = %26
  %31 = tail call i32 @gvputs(ptr noundef nonnull %0, ptr noundef nonnull @.str.32) #11
  %32 = load ptr, ptr %6, align 8, !tbaa !46
  %33 = tail call ptr @agnameof(ptr noundef %32) #11
  %34 = tail call i32 @gvputs_xml(ptr noundef nonnull %0, ptr noundef %33) #11
  %35 = tail call i32 @gvputs(ptr noundef nonnull %0, ptr noundef nonnull @.str.33) #11
  br label %36

36:                                               ; preds = %30, %26, %1
  ret void
}